; Function Attrs: mustprogress uwtable
define noundef nonnull align 8 dereferenceable(49) ptr @_ZNK7Imf_3_414TiledInputFile6headerEv(ptr noundef nonnull align 8 dereferenceable(32) %0) local_unnamed_addr #3 align 2 personality ptr @__gxx_personality_v0 {
  %2 = alloca %"class.Imf_3_4::Header", align 8
  %3 = getelementptr inbounds nuw i8, ptr %0, i64 16
  %4 = load ptr, ptr %3, align 8, !tbaa !6
  %5 = getelementptr inbounds nuw i8, ptr %4, i64 224
  %6 = tail call noundef i32 @pthread_mutex_lock(ptr noundef nonnull align 8 dereferenceable(40) %5) #28
  %.not.i.i = icmp eq i32 %6, 0
  br i1 %.not.i.i, label %_ZNSt10lock_guardISt5mutexEC2ERS0_.exit, label %7

7:                                                ; preds = %1
  tail call void @_ZSt20__throw_system_errori(i32 noundef %6) #30
  unreachable

_ZNSt10lock_guardISt5mutexEC2ERS0_.exit:          ; preds = %1
  %8 = load ptr, ptr %3, align 8, !tbaa !6
  %9 = getelementptr inbounds nuw i8, ptr %8, i64 72
  %10 = load i8, ptr %9, align 8, !tbaa !64, !range !98, !noundef !99
  %11 = trunc nuw i8 %10 to i1
  br i1 %11, label %28, label %12

12:                                               ; preds = %_ZNSt10lock_guardISt5mutexEC2ERS0_.exit
  call void @llvm.lifetime.start.p0(i64 56, ptr nonnull %2) #28
  %13 = getelementptr inbounds nuw i8, ptr %8, i64 8
  %14 = load i32, ptr %13, align 8, !tbaa !58
  invoke void @_ZNK7Imf_3_47Context6headerEi(ptr dead_on_unwind nonnull writable sret(%"class.Imf_3_4::Header") align 8 %2, ptr noundef nonnull align 8 dereferenceable(16) %0, i32 noundef %14)
          to label %15 unwind label %22

15:                                               ; preds = %12
  %16 = load ptr, ptr %3, align 8, !tbaa !6
  %17 = getelementptr inbounds nuw i8, ptr %16, i64 16
  %18 = invoke noundef nonnull align 8 dereferenceable(49) ptr @_ZN7Imf_3_46HeaderaSEOS0_(ptr noundef nonnull align 8 dereferenceable(49) %17, ptr noundef nonnull align 8 dereferenceable(49) %2)
          to label %19 unwind label %24

19:                                               ; preds = %15
  call void @_ZN7Imf_3_46HeaderD1Ev(ptr noundef nonnull align 8 dereferenceable(49) %2) #28
  call void @llvm.lifetime.end.p0(i64 56, ptr nonnull %2) #28
  %20 = load ptr, ptr %3, align 8, !tbaa !6
  %21 = getelementptr inbounds nuw i8, ptr %20, i64 72
  store i8 1, ptr %21, align 8, !tbaa !64
  br label %28

22:                                               ; preds = %12
  %23 = landingpad { ptr, i32 }
          cleanup
  br label %26

24:                                               ; preds = %15
  %25 = landingpad { ptr, i32 }
          cleanup
  call void @_ZN7Imf_3_46HeaderD1Ev(ptr noundef nonnull align 8 dereferenceable(49) %2) #28
  br label %26

26:                                               ; preds = %24, %22
  %.pn = phi { ptr, i32 } [ %25, %24 ], [ %23, %22 ]
  call void @llvm.lifetime.end.p0(i64 56, ptr nonnull %2) #28
  %27 = call noundef i32 @pthread_mutex_unlock(ptr noundef nonnull align 8 dereferenceable(40) %5) #28
  resume { ptr, i32 } %.pn

28:                                               ; preds = %19, %_ZNSt10lock_guardISt5mutexEC2ERS0_.exit
  %29 = phi ptr [ %20, %19 ], [ %8, %_ZNSt10lock_guardISt5mutexEC2ERS0_.exit ]
  %30 = getelementptr inbounds nuw i8, ptr %29, i64 16
  %31 = call noundef i32 @pthread_mutex_unlock(ptr noundef nonnull align 8 dereferenceable(40) %5) #28
  ret ptr %30
}